target datalayout = "e-m:e-p270:32:32-p271:32:32-p272:64:64-i64:64-i128:128-f80:128-n8:16:32:64-S128"
target triple = "x86_64-pc-linux-gnu"

%struct.AVProbeData = type { ptr, ptr, i32, ptr }

; Function Attrs: alwaysinline nounwind willreturn memory(none) uwtable
define internal i32 @av_bswap32(i32 noundef %0) #10 {
  %2 = alloca i32, align 4
  store i32 %0, ptr %2, align 4, !tbaa !28
  %3 = load i32, ptr %2, align 4, !tbaa !28
  %4 = shl i32 %3, 8
  %5 = and i32 %4, 65280
  %6 = load i32, ptr %2, align 4, !tbaa !28
  %7 = lshr i32 %6, 8
  %8 = and i32 %7, 255
  %9 = or i32 %5, %8
  %10 = shl i32 %9, 16
  %11 = load i32, ptr %2, align 4, !tbaa !28
  %12 = lshr i32 %11, 16
  %13 = shl i32 %12, 8
  %14 = and i32 %13, 65280
  %15 = load i32, ptr %2, align 4, !tbaa !28
  %16 = lshr i32 %15, 16
  %17 = lshr i32 %16, 8
  %18 = and i32 %17, 255
  %19 = or i32 %14, %18
  %20 = or i32 %10, %19
  ret i32 %20
}

; Function Attrs: alwaysinline nounwind willreturn memory(none) uwtable
define internal zeroext i16 @av_bswap16(i16 noundef zeroext %0) #10 {
  %2 = alloca i16, align 2
  store i16 %0, ptr %2, align 2, !tbaa !146
  %3 = load i16, ptr %2, align 2, !tbaa !146
  %4 = zext i16 %3 to i32
  %5 = ashr i32 %4, 8
  %6 = load i16, ptr %2, align 2, !tbaa !146
  %7 = zext i16 %6 to i32
  %8 = shl i32 %7, 8
  %9 = or i32 %5, %8
  %10 = trunc i32 %9 to i16
  store i16 %10, ptr %2, align 2, !tbaa !146
  %11 = load i16, ptr %2, align 2, !tbaa !146
  ret i16 %11
}

; Function Attrs: nounwind uwtable
define internal i32 @jpeg_probe(ptr noundef %0) #0 {
  %2 = alloca i32, align 4
  %3 = alloca ptr, align 8
  %4 = alloca ptr, align 8
  %5 = alloca i32, align 4
  %6 = alloca i32, align 4
  %7 = alloca i32, align 4
  %8 = alloca i32, align 4
  %9 = alloca i32, align 4
  store ptr %0, ptr %3, align 8, !tbaa !139
  call void @llvm.lifetime.start.p0(i64 8, ptr %4) #12
  %10 = load ptr, ptr %3, align 8, !tbaa !139
  %11 = getelementptr inbounds nuw %struct.AVProbeData, ptr %10, i32 0, i32 1
  %12 = load ptr, ptr %11, align 8, !tbaa !96
  store ptr %12, ptr %4, align 8, !tbaa !76
  call void @llvm.lifetime.start.p0(i64 4, ptr %5) #12
  call void @llvm.lifetime.start.p0(i64 4, ptr %6) #12
  store i32 216, ptr %6, align 4, !tbaa !28
  call void @llvm.lifetime.start.p0(i64 4, ptr %7) #12
  store i32 0, ptr %7, align 4, !tbaa !28
  %13 = load ptr, ptr %4, align 8, !tbaa !76
  %14 = load i16, ptr %13, align 1, !tbaa !77
  %15 = call zeroext i16 @av_bswap16(i16 noundef zeroext %14) #15
  %16 = zext i16 %15 to i32
  %17 = icmp ne i32 %16, 65496
  br i1 %17, label %23, label %18

18:                                               ; preds = %1
  %19 = load ptr, ptr %4, align 8, !tbaa !76
  %20 = load i32, ptr %19, align 1, !tbaa !77
  %21 = call i32 @av_bswap32(i32 noundef %20) #15
  %22 = icmp eq i32 %21, -2555913
  br i1 %22, label %23, label %24

23:                                               ; preds = %18, %1
  store i32 0, ptr %2, align 4
  store i32 1, ptr %8, align 4
  br label %160

24:                                               ; preds = %18
  %25 = load ptr, ptr %4, align 8, !tbaa !76
  %26 = getelementptr inbounds i8, ptr %25, i64 2
  store ptr %26, ptr %4, align 8, !tbaa !76
  store i32 0, ptr %5, align 4, !tbaa !28
  br label %27

27:                                               ; preds = %146, %24
  %28 = load i32, ptr %5, align 4, !tbaa !28
  %29 = load ptr, ptr %3, align 8, !tbaa !139
  %30 = getelementptr inbounds nuw %struct.AVProbeData, ptr %29, i32 0, i32 2
  %31 = load i32, ptr %30, align 8, !tbaa !97
  %32 = sub nsw i32 %31, 3
  %33 = icmp slt i32 %28, %32
  br i1 %33, label %34, label %149

34:                                               ; preds = %27
  call void @llvm.lifetime.start.p0(i64 4, ptr %9) #12
  %35 = load ptr, ptr %4, align 8, !tbaa !76
  %36 = load i32, ptr %5, align 4, !tbaa !28
  %37 = sext i32 %36 to i64
  %38 = getelementptr inbounds i8, ptr %35, i64 %37
  %39 = load i8, ptr %38, align 1, !tbaa !77
  %40 = zext i8 %39 to i32
  %41 = icmp ne i32 %40, 255
  br i1 %41, label %42, label %43

42:                                               ; preds = %34
  store i32 4, ptr %8, align 4
  br label %143

43:                                               ; preds = %34
  %44 = load ptr, ptr %4, align 8, !tbaa !76
  %45 = load i32, ptr %5, align 4, !tbaa !28
  %46 = add nsw i32 %45, 1
  %47 = sext i32 %46 to i64
  %48 = getelementptr inbounds i8, ptr %44, i64 %47
  %49 = load i8, ptr %48, align 1, !tbaa !77
  %50 = zext i8 %49 to i32
  store i32 %50, ptr %9, align 4, !tbaa !28
  %51 = load i32, ptr %9, align 4, !tbaa !28
  switch i32 %51, label %131 [
    i32 216, label %52
    i32 192, label %53
    i32 193, label %53
    i32 194, label %53
    i32 195, label %53
    i32 197, label %53
    i32 198, label %53
    i32 199, label %53
    i32 218, label %69
    i32 217, label %88
    i32 224, label %93
    i32 225, label %106
    i32 226, label %119
    i32 227, label %119
    i32 228, label %119
    i32 229, label %119
    i32 230, label %119
    i32 231, label %119
    i32 232, label %119
    i32 233, label %119
    i32 234, label %119
    i32 235, label %119
    i32 236, label %119
    i32 237, label %119
    i32 238, label %119
    i32 239, label %119
    i32 219, label %119
    i32 254, label %119
  ]

52:                                               ; preds = %43
  store i32 0, ptr %2, align 4
  store i32 1, ptr %8, align 4
  br label %143

53:                                               ; preds = %43, %43, %43, %43, %43, %43, %43
  %54 = load ptr, ptr %4, align 8, !tbaa !76
  %55 = load i32, ptr %5, align 4, !tbaa !28
  %56 = add nsw i32 %55, 2
  %57 = sext i32 %56 to i64
  %58 = getelementptr inbounds i8, ptr %54, i64 %57
  %59 = load i16, ptr %58, align 1, !tbaa !77
  %60 = call zeroext i16 @av_bswap16(i16 noundef zeroext %59) #15
  %61 = zext i16 %60 to i32
  %62 = add nsw i32 %61, 1
  %63 = load i32, ptr %5, align 4, !tbaa !28
  %64 = add nsw i32 %63, %62
  store i32 %64, ptr %5, align 4, !tbaa !28
  %65 = load i32, ptr %6, align 4, !tbaa !28
  %66 = icmp ne i32 %65, 216
  br i1 %66, label %67, label %68

67:                                               ; preds = %53
  store i32 0, ptr %2, align 4
  store i32 1, ptr %8, align 4
  br label %143

68:                                               ; preds = %53
  store i32 192, ptr %6, align 4, !tbaa !28
  br label %142

69:                                               ; preds = %43
  %70 = load ptr, ptr %4, align 8, !tbaa !76
  %71 = load i32, ptr %5, align 4, !tbaa !28
  %72 = add nsw i32 %71, 2
  %73 = sext i32 %72 to i64
  %74 = getelementptr inbounds i8, ptr %70, i64 %73
  %75 = load i16, ptr %74, align 1, !tbaa !77
  %76 = call zeroext i16 @av_bswap16(i16 noundef zeroext %75) #15
  %77 = zext i16 %76 to i32
  %78 = add nsw i32 %77, 1
  %79 = load i32, ptr %5, align 4, !tbaa !28
  %80 = add nsw i32 %79, %78
  store i32 %80, ptr %5, align 4, !tbaa !28
  %81 = load i32, ptr %6, align 4, !tbaa !28
  %82 = icmp ne i32 %81, 192
  br i1 %82, label %83, label %87

83:                                               ; preds = %69
  %84 = load i32, ptr %6, align 4, !tbaa !28
  %85 = icmp ne i32 %84, 218
  br i1 %85, label %86, label %87

86:                                               ; preds = %83
  store i32 0, ptr %2, align 4
  store i32 1, ptr %8, align 4
  br label %143

87:                                               ; preds = %83, %69
  store i32 218, ptr %6, align 4, !tbaa !28
  br label %142

88:                                               ; preds = %43
  %89 = load i32, ptr %6, align 4, !tbaa !28
  %90 = icmp ne i32 %89, 218
  br i1 %90, label %91, label %92

91:                                               ; preds = %88
  store i32 0, ptr %2, align 4
  store i32 1, ptr %8, align 4
  br label %143

92:                                               ; preds = %88
  store i32 217, ptr %6, align 4, !tbaa !28
  br label %142

93:                                               ; preds = %43
  %94 = load i32, ptr %9, align 4, !tbaa !28
  %95 = icmp eq i32 %94, 224
  br i1 %95, label %96, label %105

96:                                               ; preds = %93
  %97 = load ptr, ptr %4, align 8, !tbaa !76
  %98 = load i32, ptr %5, align 4, !tbaa !28
  %99 = add nsw i32 %98, 4
  %100 = sext i32 %99 to i64
  %101 = getelementptr inbounds i8, ptr %97, i64 %100
  %102 = load i32, ptr %101, align 1, !tbaa !77
  %103 = icmp eq i32 %102, 1179207242
  br i1 %103, label %104, label %105

104:                                              ; preds = %96
  store i32 1, ptr %7, align 4, !tbaa !28
  br label %105

105:                                              ; preds = %104, %96, %93
  br label %106

106:                                              ; preds = %43, %105
  %107 = load i32, ptr %9, align 4, !tbaa !28
  %108 = icmp eq i32 %107, 225
  br i1 %108, label %109, label %118

109:                                              ; preds = %106
  %110 = load ptr, ptr %4, align 8, !tbaa !76
  %111 = load i32, ptr %5, align 4, !tbaa !28
  %112 = add nsw i32 %111, 4
  %113 = sext i32 %112 to i64
  %114 = getelementptr inbounds i8, ptr %110, i64 %113
  %115 = load i32, ptr %114, align 1, !tbaa !77
  %116 = icmp eq i32 %115, 1718188101
  br i1 %116, label %117, label %118

117:                                              ; preds = %109
  store i32 1, ptr %7, align 4, !tbaa !28
  br label %118

118:                                              ; preds = %117, %109, %106
  br label %119

119:                                              ; preds = %43, %43, %43, %43, %43, %43, %43, %43, %43, %43, %43, %43, %43, %43, %43, %43, %118
  %120 = load ptr, ptr %4, align 8, !tbaa !76
  %121 = load i32, ptr %5, align 4, !tbaa !28
  %122 = add nsw i32 %121, 2
  %123 = sext i32 %122 to i64
  %124 = getelementptr inbounds i8, ptr %120, i64 %123
  %125 = load i16, ptr %124, align 1, !tbaa !77
  %126 = call zeroext i16 @av_bswap16(i16 noundef zeroext %125) #15
  %127 = zext i16 %126 to i32
  %128 = add nsw i32 %127, 1
  %129 = load i32, ptr %5, align 4, !tbaa !28
  %130 = add nsw i32 %129, %128
  store i32 %130, ptr %5, align 4, !tbaa !28
  br label %142

131:                                              ; preds = %43
  %132 = load i32, ptr %9, align 4, !tbaa !28
  %133 = icmp sgt i32 %132, 1
  br i1 %133, label %134, label %137

134:                                              ; preds = %131
  %135 = load i32, ptr %9, align 4, !tbaa !28
  %136 = icmp slt i32 %135, 192
  br i1 %136, label %140, label %137

137:                                              ; preds = %134, %131
  %138 = load i32, ptr %9, align 4, !tbaa !28
  %139 = icmp eq i32 %138, 200
  br i1 %139, label %140, label %141

140:                                              ; preds = %137, %134
  store i32 0, ptr %2, align 4
  store i32 1, ptr %8, align 4
  br label %143

141:                                              ; preds = %137
  br label %142

142:                                              ; preds = %141, %119, %92, %87, %68
  store i32 0, ptr %8, align 4
  br label %143

143:                                              ; preds = %142, %140, %91, %86, %67, %52, %42
  call void @llvm.lifetime.end.p0(i64 4, ptr %9) #12
  %144 = load i32, ptr %8, align 4
  switch i32 %144, label %160 [
    i32 0, label %145
    i32 4, label %146
  ]

145:                                              ; preds = %143
  br label %146

146:                                              ; preds = %145, %143
  %147 = load i32, ptr %5, align 4, !tbaa !28
  %148 = add nsw i32 %147, 1
  store i32 %148, ptr %5, align 4, !tbaa !28
  br label %27, !llvm.loop !144

149:                                              ; preds = %27
  %150 = load i32, ptr %6, align 4, !tbaa !28
  %151 = icmp eq i32 %150, 217
  br i1 %151, label %152, label %153

152:                                              ; preds = %149
  store i32 51, ptr %2, align 4
  store i32 1, ptr %8, align 4
  br label %160

153:                                              ; preds = %149
  %154 = load i32, ptr %6, align 4, !tbaa !28
  %155 = icmp eq i32 %154, 218
  br i1 %155, label %156, label %159

156:                                              ; preds = %153
  %157 = load i32, ptr %7, align 4, !tbaa !28
  %158 = add nsw i32 25, %157
  store i32 %158, ptr %2, align 4
  store i32 1, ptr %8, align 4
  br label %160

159:                                              ; preds = %153
  store i32 7, ptr %2, align 4
  store i32 1, ptr %8, align 4
  br label %160

160:                                              ; preds = %159, %156, %152, %143, %23
  call void @llvm.lifetime.end.p0(i64 4, ptr %7) #12
  call void @llvm.lifetime.end.p0(i64 4, ptr %6) #12
  call void @llvm.lifetime.end.p0(i64 4, ptr %5) #12
  call void @llvm.lifetime.end.p0(i64 8, ptr %4) #12
  %161 = load i32, ptr %2, align 4
  ret i32 %161
}