; Function Attrs: nofree norecurse nosync nounwind memory(read, inaccessiblemem: none) uwtable
define internal range(i32 0, 52) i32 @jpeg_probe(ptr noundef readonly captures(none) %0) #10 {
  %2 = getelementptr inbounds nuw i8, ptr %0, i64 8
  %3 = load ptr, ptr %2, align 8, !tbaa !90
  %4 = load i16, ptr %3, align 1, !tbaa !68
  %.not = icmp eq i16 %4, -9985
  br i1 %.not, label %5, label %.thread60

5:                                                ; preds = %1
  %6 = load i32, ptr %3, align 1, !tbaa !68
  %7 = icmp eq i32 %6, -134227713
  br i1 %7, label %.thread60, label %8

8:                                                ; preds = %5
  %9 = getelementptr inbounds nuw i8, ptr %3, i64 2
  %10 = getelementptr inbounds nuw i8, ptr %0, i64 16
  %11 = load i32, ptr %10, align 8, !tbaa !91
  %12 = add nsw i32 %11, -3
  %13 = icmp sgt i32 %11, 3
  br i1 %13, label %.lr.ph, label %._crit_edge.thread

.lr.ph:                                           ; preds = %8, %49
  %.04469 = phi i32 [ %.145, %49 ], [ 0, %8 ]
  %.04768 = phi i32 [ %.148, %49 ], [ 216, %8 ]
  %.05067 = phi i32 [ %50, %49 ], [ 0, %8 ]
  %14 = sext i32 %.05067 to i64
  %15 = getelementptr inbounds i8, ptr %9, i64 %14
  %16 = load i8, ptr %15, align 1, !tbaa !68
  %.not54 = icmp eq i8 %16, -1
  br i1 %.not54, label %17, label %49

17:                                               ; preds = %.lr.ph
  %18 = getelementptr i8, ptr %15, i64 1
  %19 = load i8, ptr %18, align 1, !tbaa !68
  switch i8 %19, label %46 [
    i8 -40, label %.thread60
    i8 -64, label %20
    i8 -63, label %20
    i8 -62, label %20
    i8 -61, label %20
    i8 -59, label %20
    i8 -58, label %20
    i8 -57, label %20
    i8 -38, label %27
    i8 -39, label %34
    i8 -32, label %.sink.split
    i8 -31, label %35
    i8 -30, label %39
    i8 -29, label %39
    i8 -28, label %39
    i8 -27, label %39
    i8 -26, label %39
    i8 -25, label %39
    i8 -24, label %39
    i8 -23, label %39
    i8 -22, label %39
    i8 -21, label %39
    i8 -20, label %39
    i8 -19, label %39
    i8 -18, label %39
    i8 -17, label %39
    i8 -37, label %39
    i8 -2, label %39
  ]

20:                                               ; preds = %17, %17, %17, %17, %17, %17, %17
  %21 = getelementptr i8, ptr %15, i64 2
  %22 = load i16, ptr %21, align 1, !tbaa !68
  %23 = tail call i16 @llvm.bswap.i16(i16 %22)
  %24 = zext i16 %23 to i32
  %25 = add nsw i32 %.05067, 1
  %26 = add i32 %25, %24
  %.not56 = icmp eq i32 %.04768, 216
  br i1 %.not56, label %49, label %.thread60

27:                                               ; preds = %17
  %28 = getelementptr i8, ptr %15, i64 2
  %29 = load i16, ptr %28, align 1, !tbaa !68
  %30 = tail call i16 @llvm.bswap.i16(i16 %29)
  %31 = zext i16 %30 to i32
  %32 = add nsw i32 %.05067, 1
  %33 = add i32 %32, %31
  switch i32 %.04768, label %.thread60 [
    i32 218, label %49
    i32 192, label %49
  ]

34:                                               ; preds = %17
  %.not55 = icmp eq i32 %.04768, 218
  br i1 %.not55, label %49, label %.thread60

35:                                               ; preds = %17
  br label %.sink.split

.sink.split:                                      ; preds = %17, %35
  %.sink74 = phi i32 [ 1718188101, %35 ], [ 1179207242, %17 ]
  %36 = getelementptr i8, ptr %15, i64 4
  %37 = load i32, ptr %36, align 1, !tbaa !68
  %38 = icmp eq i32 %37, %.sink74
  %spec.select = select i1 %38, i32 1, i32 %.04469
  br label %39

39:                                               ; preds = %.sink.split, %17, %17, %17, %17, %17, %17, %17, %17, %17, %17, %17, %17, %17, %17, %17, %17
  %.3 = phi i32 [ %.04469, %17 ], [ %.04469, %17 ], [ %.04469, %17 ], [ %.04469, %17 ], [ %.04469, %17 ], [ %.04469, %17 ], [ %.04469, %17 ], [ %.04469, %17 ], [ %.04469, %17 ], [ %.04469, %17 ], [ %.04469, %17 ], [ %.04469, %17 ], [ %.04469, %17 ], [ %.04469, %17 ], [ %.04469, %17 ], [ %.04469, %17 ], [ %spec.select, %.sink.split ]
  %40 = getelementptr i8, ptr %15, i64 2
  %41 = load i16, ptr %40, align 1, !tbaa !68
  %42 = tail call i16 @llvm.bswap.i16(i16 %41)
  %43 = zext i16 %42 to i32
  %44 = add nsw i32 %.05067, 1
  %45 = add i32 %44, %43
  br label %49

46:                                               ; preds = %17
  %47 = add i8 %19, -2
  %or.cond3 = icmp ult i8 %47, -66
  %48 = icmp eq i8 %19, -56
  %or.cond5 = or i1 %48, %or.cond3
  br i1 %or.cond5, label %.thread60, label %49

49:                                               ; preds = %39, %46, %20, %27, %27, %34, %.lr.ph
  %.151 = phi i32 [ %.05067, %.lr.ph ], [ %.05067, %46 ], [ %45, %39 ], [ %26, %20 ], [ %33, %27 ], [ %33, %27 ], [ %.05067, %34 ]
  %.148 = phi i32 [ %.04768, %.lr.ph ], [ %.04768, %46 ], [ %.04768, %39 ], [ 192, %20 ], [ 218, %27 ], [ 218, %27 ], [ 217, %34 ]
  %.145 = phi i32 [ %.04469, %.lr.ph ], [ %.04469, %46 ], [ %.3, %39 ], [ %.04469, %20 ], [ %.04469, %27 ], [ %.04469, %27 ], [ %.04469, %34 ]
  %50 = add nsw i32 %.151, 1
  %51 = icmp slt i32 %50, %12
  br i1 %51, label %.lr.ph, label %._crit_edge, !llvm.loop !130

._crit_edge:                                      ; preds = %49
  %trunc = trunc nuw i32 %.148 to i8
  switch i8 %trunc, label %._crit_edge.thread [
    i8 -39, label %.thread60
    i8 -38, label %52
  ]

52:                                               ; preds = %._crit_edge
  %53 = add nuw nsw i32 %.145, 25
  br label %.thread60

._crit_edge.thread:                               ; preds = %8, %._crit_edge
  br label %.thread60

.thread60:                                        ; preds = %46, %34, %27, %20, %17, %._crit_edge, %1, %5, %._crit_edge.thread, %52
  %.0 = phi i32 [ %53, %52 ], [ 7, %._crit_edge.thread ], [ 0, %5 ], [ 0, %1 ], [ 51, %._crit_edge ], [ 0, %17 ], [ 0, %20 ], [ 0, %27 ], [ 0, %34 ], [ 0, %46 ]
  ret i32 %.0
}